target datalayout = "e-m:e-p270:32:32-p271:32:32-p272:64:64-i64:64-i128:128-f80:128-n8:16:32:64-S128"
target triple = "x86_64-pc-linux-gnu"

%class.OopHandle = type { ptr }
%class.MemRegion = type { ptr, i64 }
%class.ShenandoahRegionIterator = type { ptr, [64 x i8], i64, [64 x i8] }
%class.ShenandoahHeap = type <{ %class.CollectedHeap, %class.ShenandoahSpaceInfo, %class.ShenandoahLock, i64, i64, i64, [64 x i8], i64, i64, i64, [64 x i8], i32, [4 x i8], ptr, ptr, %class.MemRegion, i8, [7 x i8], i64, ptr, %class.ShenandoahRegionIterator, i8, %struct.ShenandoahSharedBitmap, %struct.ShenandoahSharedFlag, %struct.ShenandoahSharedFlag, %struct.ShenandoahSharedFlag, %struct.ShenandoahSharedFlag, %struct.ShenandoahSharedFlag, i8, i64, %struct.ShenandoahSharedEnumFlag, [7 x i8], ptr, ptr, ptr, ptr, ptr, ptr, ptr, ptr, ptr, ptr, %class.GCMemoryManager, %class.GCMemoryManager, ptr, i32, [4 x i8], ptr, %struct.ShenandoahSharedFlag, %class.ShenandoahUnload, [6 x i8], ptr, %class.MemRegion, %class.MemRegion, %class.MarkBitMap, %class.MarkBitMap, i64, i64, i64, i64, i64, i8, i8, [6 x i8], ptr, ptr, %class.ShenandoahEvacOOMHandler, %struct.ShenandoahSharedFlag, [7 x i8] }>
%class.CollectedHeap = type { ptr, ptr, i64, i64, %class.SoftRefPolicy, %class.MemRegion, i8, i64, i32, i32, i32, i32, ptr, ptr }
%class.SoftRefPolicy = type { i8, i8 }
%class.ShenandoahSpaceInfo = type { ptr }
%class.ShenandoahLock = type { [64 x i8], i32, [64 x i8], ptr, [64 x i8] }
%struct.ShenandoahSharedBitmap = type { [64 x i8], i8, [64 x i8] }
%struct.ShenandoahSharedEnumFlag = type { [64 x i8], i8, [64 x i8] }
%class.GCMemoryManager = type <{ %class.MemoryManager.base, [7 x i8], i64, %class.elapsedTimer, ptr, ptr, ptr, i32, i8, [10 x i8], i8 }>
%class.MemoryManager.base = type <{ ptr, [10 x ptr], i32, [4 x i8], ptr, %class.OopHandle, i8 }>
%class.elapsedTimer = type <{ i64, i64, i8, [7 x i8] }>
%class.ShenandoahUnload = type { i8 }
%class.MarkBitMap = type { ptr, %class.MemRegion, i32, %class.BitMapView }
%class.BitMapView = type { %class.BitMap }
%class.BitMap = type { ptr, i64 }
%class.ShenandoahEvacOOMHandler = type { i32, [64 x i8], ptr }
%struct.ShenandoahSharedFlag = type { [64 x i8], i8, [64 x i8] }

@_ZN20ShenandoahHeapRegion20RegionSizeBytesShiftE = external global i64, align 8

; Function Attrs: mustprogress nounwind uwtable
define linkonce_odr hidden noundef ptr @_ZNK9MemRegion5startEv(ptr noundef nonnull align 8 dereferenceable(16) %0) #1 comdat align 2 {
  %2 = alloca ptr, align 8
  store ptr %0, ptr %2, align 8
  %3 = load ptr, ptr %2, align 8
  %4 = getelementptr inbounds %class.MemRegion, ptr %3, i32 0, i32 0
  %5 = load ptr, ptr %4, align 8
  ret ptr %5
}

; Function Attrs: mustprogress nounwind uwtable
define linkonce_odr hidden noundef i64 @_ZN20ShenandoahHeapRegion23region_size_bytes_shiftEv() #1 comdat align 2 {
  %1 = load i64, ptr @_ZN20ShenandoahHeapRegion20RegionSizeBytesShiftE, align 8
  ret i64 %1
}

; Function Attrs: mustprogress nounwind uwtable
define linkonce_odr hidden noundef ptr @_ZNK14ShenandoahHeap4baseEv(ptr noundef nonnull align 8 dereferenceable(2657) %0) #1 comdat align 2 {
  %2 = alloca ptr, align 8
  store ptr %0, ptr %2, align 8
  %3 = load ptr, ptr %2, align 8
  %4 = getelementptr inbounds %class.ShenandoahHeap, ptr %3, i32 0, i32 15
  %5 = call noundef ptr @_ZNK9MemRegion5startEv(ptr noundef nonnull align 8 dereferenceable(16) %4)
  ret ptr %5
}

; Function Attrs: mustprogress nounwind uwtable
define linkonce_odr hidden noundef ptr @_ZNK14ShenandoahHeap10get_regionEm(ptr noundef nonnull align 8 dereferenceable(2657) %0, i64 noundef %1) #1 comdat align 2 {
  %3 = alloca ptr, align 8
  %4 = alloca ptr, align 8
  %5 = alloca i64, align 8
  store ptr %0, ptr %4, align 8
  store i64 %1, ptr %5, align 8
  %6 = load ptr, ptr %4, align 8
  %7 = load i64, ptr %5, align 8
  %8 = getelementptr inbounds %class.ShenandoahHeap, ptr %6, i32 0, i32 18
  %9 = load i64, ptr %8, align 8
  %10 = icmp ult i64 %7, %9
  br i1 %10, label %11, label %17

11:                                               ; preds = %2
  %12 = getelementptr inbounds %class.ShenandoahHeap, ptr %6, i32 0, i32 19
  %13 = load ptr, ptr %12, align 8
  %14 = load i64, ptr %5, align 8
  %15 = getelementptr inbounds ptr, ptr %13, i64 %14
  %16 = load ptr, ptr %15, align 8
  store ptr %16, ptr %3, align 8
  br label %18

17:                                               ; preds = %2
  store ptr null, ptr %3, align 8
  br label %18

18:                                               ; preds = %17, %11
  %19 = load ptr, ptr %3, align 8
  ret ptr %19
}

; Function Attrs: mustprogress nounwind uwtable
define linkonce_odr hidden noundef i64 @_ZNK14ShenandoahHeap28heap_region_index_containingEPKv(ptr noundef nonnull align 8 dereferenceable(2657) %0, ptr noundef %1) #1 comdat align 2 {
  %3 = alloca ptr, align 8
  %4 = alloca ptr, align 8
  %5 = alloca i64, align 8
  %6 = alloca i64, align 8
  store ptr %0, ptr %3, align 8
  store ptr %1, ptr %4, align 8
  %7 = load ptr, ptr %3, align 8
  %8 = load ptr, ptr %4, align 8
  %9 = ptrtoint ptr %8 to i64
  store i64 %9, ptr %5, align 8
  %10 = load i64, ptr %5, align 8
  %11 = call noundef ptr @_ZNK14ShenandoahHeap4baseEv(ptr noundef nonnull align 8 dereferenceable(2657) %7)
  %12 = ptrtoint ptr %11 to i64
  %13 = sub i64 %10, %12
  %14 = call noundef i64 @_ZN20ShenandoahHeapRegion23region_size_bytes_shiftEv()
  %15 = lshr i64 %13, %14
  store i64 %15, ptr %6, align 8
  %16 = load i64, ptr %6, align 8
  ret i64 %16
}

; Function Attrs: mustprogress nounwind uwtable
define linkonce_odr hidden noundef ptr @_ZNK14ShenandoahHeap22heap_region_containingEPKv(ptr noundef nonnull align 8 dereferenceable(2657) %0, ptr noundef %1) #1 comdat align 2 {
  %3 = alloca ptr, align 8
  %4 = alloca ptr, align 8
  %5 = alloca i64, align 8
  %6 = alloca ptr, align 8
  store ptr %0, ptr %3, align 8
  store ptr %1, ptr %4, align 8
  %7 = load ptr, ptr %3, align 8
  %8 = load ptr, ptr %4, align 8
  %9 = call noundef i64 @_ZNK14ShenandoahHeap28heap_region_index_containingEPKv(ptr noundef nonnull align 8 dereferenceable(2657) %7, ptr noundef %8)
  store i64 %9, ptr %5, align 8
  %10 = load i64, ptr %5, align 8
  %11 = call noundef ptr @_ZNK14ShenandoahHeap10get_regionEm(ptr noundef nonnull align 8 dereferenceable(2657) %7, i64 noundef %10)
  store ptr %11, ptr %6, align 8
  %12 = load ptr, ptr %6, align 8
  ret ptr %12
}

; Function Attrs: mustprogress nounwind uwtable
define hidden void @_ZN14ShenandoahHeap10pin_objectEP10JavaThreadP7oopDesc(ptr noundef nonnull align 8 dereferenceable(2657) %0, ptr noundef %1, ptr noundef %2) unnamed_addr #1 align 2 {
  %4 = alloca ptr, align 8
  %5 = alloca ptr, align 8
  %6 = alloca ptr, align 8
  store ptr %0, ptr %4, align 8
  store ptr %1, ptr %5, align 8
  store ptr %2, ptr %6, align 8
  %7 = load ptr, ptr %4, align 8
  %8 = load ptr, ptr %6, align 8
  %9 = call noundef ptr @_ZNK14ShenandoahHeap22heap_region_containingEPKv(ptr noundef nonnull align 8 dereferenceable(2657) %7, ptr noundef %8)
  call void @_ZN20ShenandoahHeapRegion10record_pinEv(ptr noundef nonnull align 8 dereferenceable(96) %9)
  ret void
}