; Function Attrs: mustprogress nounwind uwtable
define hidden void @_ZN14ShenandoahHeap10pin_objectEP10JavaThreadP7oopDesc(ptr nocapture noundef nonnull readonly align 8 dereferenceable(2657) %0, ptr nocapture readnone %1, ptr noundef %2) unnamed_addr #1 align 2 {
_ZNK14ShenandoahHeap22heap_region_containingEPKv.exit:
  %3 = ptrtoint ptr %2 to i64
  %4 = getelementptr inbounds i8, ptr %0, i64 520
  %5 = load ptr, ptr %4, align 8
  %6 = ptrtoint ptr %5 to i64
  %7 = sub i64 %3, %6
  %8 = load i64, ptr @_ZN20ShenandoahHeapRegion20RegionSizeBytesShiftE, align 8
  %9 = lshr i64 %7, %8
  %10 = getelementptr inbounds i8, ptr %0, i64 544
  %11 = load i64, ptr %10, align 8
  %12 = icmp ugt i64 %11, %9
  tail call void @llvm.assume(i1 %12)
  %13 = getelementptr inbounds i8, ptr %0, i64 552
  %14 = load ptr, ptr %13, align 8
  %15 = getelementptr inbounds ptr, ptr %14, i64 %9
  %16 = load ptr, ptr %15, align 8
  tail call void @_ZN20ShenandoahHeapRegion10record_pinEv(ptr noundef nonnull align 8 dereferenceable(96) %16) #26
  ret void
}